Certificate:
    Data:
        Version: 3 (0x2)
        Serial Number: 4096 (0x1000)
    Signature Algorithm: sha256WithRSAEncryption
        Issuer: C=SE, ST=sthlm, L=Stockholm, O=kth, OU=IK2206, CN=vpn_lab
        Validity
            Not Before: Dec  5 09:30:53 2016 GMT
            Not After : Dec  5 09:30:53 2017 GMT
        Subject: C=SE, ST=sthlm, O=kth, OU=IK2206, CN=vpn_lab_server
        Subject Public Key Info:
            Public Key Algorithm: rsaEncryption
                Public-Key: (1024 bit)
                Modulus:
                    00:92:f0:fc:c4:ba:a1:ab:68:2a:5c:52:b6:1d:16:
                    0a:0e:c5:85:7c:ce:73:0d:8f:0b:2e:08:63:0c:d4:
                    fd:fd:9d:05:28:7f:60:2c:e3:74:37:86:2b:05:c5:
                    8c:41:79:dc:2e:24:bf:0e:6a:06:e7:7f:39:5c:fb:
                    44:1c:6e:4a:b7:81:9e:f2:50:f8:05:0b:12:87:37:
                    0c:cd:a5:e2:b3:b7:c3:e8:08:92:f2:f3:be:63:1e:
                    65:14:5b:4c:ae:a8:42:28:1f:34:b2:20:f0:11:7a:
                    e8:08:fc:2c:75:b4:4a:aa:e2:ee:a9:30:00:9d:d2:
                    d8:eb:20:b7:60:7d:54:80:df
                Exponent: 65537 (0x10001)
        X509v3 extensions:
            X509v3 Basic Constraints: 
                CA:FALSE
            Netscape Comment: 
                OpenSSL Generated Certificate
            X509v3 Subject Key Identifier: 
                23:90:43:16:0C:A4:52:F0:C8:99:09:12:29:25:E2:2C:B7:EE:5C:C0
            X509v3 Authority Key Identifier: 
                keyid:9C:39:71:CE:DC:21:D7:68:FC:BD:F8:A3:60:90:99:61:60:5A:CF:01

    Signature Algorithm: sha256WithRSAEncryption
         15:61:1a:45:65:fb:03:17:51:65:05:1d:27:1b:0f:33:ec:99:
         0f:cd:db:08:b1:40:42:35:1e:f1:d6:29:f7:8b:31:3e:e9:cd:
         4e:35:12:4e:e6:1a:b7:65:1e:ee:b7:e8:76:82:20:e7:f2:7a:
         56:5e:ff:30:56:47:c6:9a:df:7b:77:b8:53:bd:f0:98:27:59:
         0d:2d:55:f7:7f:c0:3c:e9:52:b9:9a:b7:f4:fb:5b:0d:8d:4b:
         56:e2:a6:dd:aa:9c:7a:2b:2a:87:f3:6e:83:24:4a:4f:48:dd:
         dc:22:c2:23:ec:f2:fa:3f:e6:31:a9:b9:87:ff:24:d7:93:b8:
         3b:25:b6:16:5d:0a:5f:e6:77:b1:62:ca:0e:b8:39:03:24:e7:
         75:a3:ea:8a:9d:a0:3b:07:51:43:c0:4c:c0:9d:29:c0:24:db:
         be:37:01:a0:82:2c:4a:82:c6:03:b3:c3:23:e0:fc:72:fd:58:
         41:bb:83:92:0a:4a:f0:f0:56:78:08:b8:3d:65:39:3a:1d:a6:
         e8:a7:c8:fd:8c:0e:22:1d:34:64:ab:fa:d3:e8:06:04:5d:4d:
         50:d1:3d:a0:72:50:5a:c0:57:a1:2f:9b:fb:18:e8:d5:22:29:
         25:61:47:6c:49:25:fe:0c:5c:1d:24:48:33:dd:72:e9:b7:f6:
         37:45:33:47
-----BEGIN CERTIFICATE-----
MIIDKjCCAhKgAwIBAgICEAAwDQYJKoZIhvcNAQELBQAwYjELMAkGA1UEBhMCU0Ux
DjAMBgNVBAgMBXN0aGxtMRIwEAYDVQQHDAlTdG9ja2hvbG0xDDAKBgNVBAoMA2t0
aDEPMA0GA1UECwwGSUsyMjA2MRAwDgYDVQQDDAd2cG5fbGFiMB4XDTE2MTIwNTA5
MzA1M1oXDTE3MTIwNTA5MzA1M1owVTELMAkGA1UEBhMCU0UxDjAMBgNVBAgMBXN0
aGxtMQwwCgYDVQQKDANrdGgxDzANBgNVBAsMBklLMjIwNjEXMBUGA1UEAwwOdnBu
X2xhYl9zZXJ2ZXIwgZ8wDQYJKoZIhvcNAQEBBQADgY0AMIGJAoGBAJLw/MS6oato
KlxSth0WCg7FhXzOcw2PCy4IYwzU/f2dBSh/YCzjdDeGKwXFjEF53C4kvw5qBud/
OVz7RBxuSreBnvJQ+AULEoc3DM2l4rO3w+gIkvLzvmMeZRRbTK6oQigfNLIg8BF6
6Aj8LHW0Sqri7qkwAJ3S2Osgt2B9VIDfAgMBAAGjezB5MAkGA1UdEwQCMAAwLAYJ
YIZIAYb4QgENBB8WHU9wZW5TU0wgR2VuZXJhdGVkIENlcnRpZmljYXRlMB0GA1Ud
DgQWBBQjkEMWDKRS8MiZCRIpJeIst+5cwDAfBgNVHSMEGDAWgBScOXHO3CHXaPy9
+KNgkJlhYFrPATANBgkqhkiG9w0BAQsFAAOCAQEAFWEaRWX7AxdRZQUdJxsPM+yZ
D83bCLFAQjUe8dYp94sxPunNTjUSTuYat2Ue7rfodoIg5/J6Vl7/MFZHxprfe3e4
U73wmCdZDS1V93/APOlSuZq39PtbDY1LVuKm3aqceisqh/NugyRKT0jd3CLCI+zy
+j/mMam5h/8k15O4OyW2Fl0KX+Z3sWLKDrg5AyTndaPqip2gOwdRQ8BMwJ0pwCTb
vjcBoIIsSoLGA7PDI+D8cv1YQbuDkgpK8PBWeAi4PWU5Oh2m6KfI/YwOIh00ZKv6
0+gGBF1NUNE9oHJQWsBXoS+b+xjo1SIpJWFHbEkl/gxcHSRIM91y6bf2N0UzRw==
-----END CERTIFICATE-----
