Certificate:
    Data:
        Version: 3 (0x2)
        Serial Number: 4096 (0x1000)
    Signature Algorithm: sha256WithRSAEncryption
        Issuer: C=SE
        Validity
            Not Before: Nov 30 11:19:56 2016 GMT
            Not After : Nov 30 11:19:56 2017 GMT
        Subject: C=SE
        Subject Public Key Info:
            Public Key Algorithm: rsaEncryption
                Public-Key: (1024 bit)
                Modulus:
                    00:ba:84:ca:1f:ea:4a:b3:c2:32:29:78:c0:67:51:
                    d4:42:3a:51:70:2d:e8:e9:7c:59:65:54:47:59:00:
                    28:4d:4c:63:5d:97:8f:07:81:f7:04:4f:55:fe:01:
                    7b:5a:91:ae:6f:69:a7:c0:04:e9:87:1a:6e:7f:81:
                    a4:1d:ca:01:e6:c0:3b:85:d5:09:d2:fc:af:d4:80:
                    fd:90:34:68:e6:d9:ef:91:fa:2d:99:7f:65:9d:53:
                    27:d1:08:c1:8d:60:44:54:ad:2f:cc:42:27:54:61:
                    81:78:de:34:da:12:14:16:4c:78:4e:84:14:92:fd:
                    8e:16:27:00:36:78:37:14:8b
                Exponent: 65537 (0x10001)
        X509v3 extensions:
            X509v3 Basic Constraints: 
                CA:FALSE
            Netscape Comment: 
                OpenSSL Generated Certificate
            X509v3 Subject Key Identifier: 
                4E:B8:42:10:99:0B:E3:51:0E:7B:4E:5C:A0:BF:E4:21:30:89:04:3C
            X509v3 Authority Key Identifier: 
                keyid:39:6E:09:CD:3F:BF:F2:05:EB:13:BF:F3:02:C4:F7:53:B6:5C:31:86

    Signature Algorithm: sha256WithRSAEncryption
         81:55:d8:52:13:1c:ad:33:08:0c:20:d9:bf:a5:a9:88:f3:17:
         14:bb:7b:2f:f7:61:cb:84:ee:73:94:b8:b1:32:68:7b:ed:7b:
         99:eb:8b:5f:08:73:a7:d2:0e:28:88:32:6e:78:79:c3:f4:33:
         a1:76:90:56:df:d4:9d:b3:e1:dc:48:fd:d6:be:e2:5e:63:30:
         37:32:fa:78:9f:d2:a1:89:13:5d:9b:9a:01:f3:b6:fe:d7:fd:
         d1:a9:2f:b8:54:ae:ab:08:96:79:77:6d:f4:5f:8a:9e:aa:fe:
         84:3f:6a:9b:f8:c0:26:a2:f2:60:6f:9d:d1:fb:34:c9:96:00:
         0c:b6:40:1b:0c:8f:31:e6:9e:09:b6:a9:ce:7f:92:2e:26:b2:
         c3:d1:6f:44:dc:ec:f2:c7:75:28:41:58:c6:4f:7d:e9:72:79:
         27:e2:ef:d4:58:ad:a4:3a:69:7c:3a:44:fe:0c:11:35:ed:95:
         07:10:a5:86:5f:5e:ec:21:09:14:71:25:fc:ff:a8:51:6a:b4:
         12:aa:b9:92:52:0f:f7:3a:be:a5:38:28:65:3a:4f:7a:7c:4e:
         bf:50:5a:b9:b5:86:8c:47:8b:67:8d:27:c5:e2:f3:97:c7:d3:
         28:b2:6b:9e:35:29:19:8c:28:1b:e0:2a:97:03:ce:38:b7:fc:
         ea:32:1e:b2
-----BEGIN CERTIFICATE-----
MIICjTCCAXWgAwIBAgICEAAwDQYJKoZIhvcNAQELBQAwDTELMAkGA1UEBhMCU0Uw
HhcNMTYxMTMwMTExOTU2WhcNMTcxMTMwMTExOTU2WjANMQswCQYDVQQGEwJTRTCB
nzANBgkqhkiG9w0BAQEFAAOBjQAwgYkCgYEAuoTKH+pKs8IyKXjAZ1HUQjpRcC3o
6XxZZVRHWQAoTUxjXZePB4H3BE9V/gF7WpGub2mnwATphxpuf4GkHcoB5sA7hdUJ
0vyv1ID9kDRo5tnvkfotmX9lnVMn0QjBjWBEVK0vzEInVGGBeN402hIUFkx4ToQU
kv2OFicANng3FIsCAwEAAaN7MHkwCQYDVR0TBAIwADAsBglghkgBhvhCAQ0EHxYd
T3BlblNTTCBHZW5lcmF0ZWQgQ2VydGlmaWNhdGUwHQYDVR0OBBYEFE64QhCZC+NR
DntOXKC/5CEwiQQ8MB8GA1UdIwQYMBaAFDluCc0/v/IF6xO/8wLE91O2XDGGMA0G
CSqGSIb3DQEBCwUAA4IBAQCBVdhSExytMwgMINm/pamI8xcUu3sv92HLhO5zlLix
Mmh77XuZ64tfCHOn0g4oiDJueHnD9DOhdpBW39Sds+HcSP3WvuJeYzA3Mvp4n9Kh
iRNdm5oB87b+1/3RqS+4VK6rCJZ5d230X4qeqv6EP2qb+MAmovJgb53R+zTJlgAM
tkAbDI8x5p4JtqnOf5IuJrLD0W9E3Ozyx3UoQVjGT33pcnkn4u/UWK2kOml8OkT+
DBE17ZUHEKWGX17sIQkUcSX8/6hRarQSqrmSUg/3Or6lOChlOk96fE6/UFq5tYaM
R4tnjSfF4vOXx9MosmueNSkZjCgb4CqXA844t/zqMh6y
-----END CERTIFICATE-----
